target datalayout = "e-m:e-p270:32:32-p271:32:32-p272:64:64-i64:64-i128:128-f80:128-n8:16:32:64-S128"
target triple = "x86_64-pc-linux-gnu"

%"class.datalog::mk_array_eq_rewrite" = type <{ %"class.datalog::rule_transformer::plugin", ptr, ptr, %class.array_util, ptr, ptr, ptr, i32, [4 x i8] }>
%"class.datalog::rule_transformer::plugin" = type { ptr, i32, i8, ptr }
%class.array_util = type { %class.array_recognizers, ptr }
%class.array_recognizers = type { i32 }
%"class.datalog::context" = type <{ ptr, ptr, ptr, %class.params_ref, ptr, i8, i8, [6 x i8], %class.symbol, %"class.datalog::dl_decl_util", %class.th_rewriter, %class.var_subst, %"class.datalog::rule_manager", %"class.datalog::context::contains_pred", %"class.datalog::rule_properties", %"class.datalog::rule_transformer", %class.trail_stack, %class.ref_vector.40, %class.bind_variables, %class.obj_map.57, %class.obj_hashtable.62, %class.map.68, %class.obj_map.72, %"class.datalog::rule_set", %"class.datalog::rule_set", %class.expr_free_vars, i32, [4 x i8], %class.ref_vector, %class.svector.55, %class.vector.101, %class.ref_vector, %class.ref, %class.ref.102, ptr, %class.scoped_ptr.103, i8, i8, i8, i8, i32, %class.obj_ref, %class.obj_ref, i32, [4 x i8] }>
%class.params_ref = type { ptr }
%class.symbol = type { ptr }
%"class.datalog::dl_decl_util" = type <{ ptr, %class.scoped_ptr, %class.scoped_ptr.0, i32, [4 x i8] }>
%class.scoped_ptr = type { ptr }
%class.scoped_ptr.0 = type { ptr }
%class.th_rewriter = type { ptr, %class.params_ref }
%class.var_subst = type { %class.beta_reducer, i8, [7 x i8] }
%class.beta_reducer = type <{ %class.rewriter_tpl, [8 x i8] }>
%class.rewriter_tpl = type { %class.rewriter_core, ptr, i32, %class.ptr_vector.2, %class.var_shifter, %class.inv_var_shifter, %class.obj_ref, %class.obj_ref.11, %class.obj_ref.11, %class.svector.12 }
%class.rewriter_core = type { ptr, ptr, i8, i8, %class.ptr_vector, ptr, %class.svector, %class.ref_vector, %class.ptr_vector, ptr, %class.ref_vector.4, %class.obj_hashtable, ptr, i32, %class.svector.9 }
%class.svector = type { %class.vector.1 }
%class.vector.1 = type { ptr }
%class.ptr_vector = type { %class.vector }
%class.vector = type { ptr }
%class.ref_vector.4 = type { %class.ref_vector_core.5 }
%class.ref_vector_core.5 = type { %class.ref_manager_wrapper.6, %class.ptr_vector.7 }
%class.ref_manager_wrapper.6 = type { ptr }
%class.ptr_vector.7 = type { %class.vector.8 }
%class.vector.8 = type { ptr }
%class.obj_hashtable = type { %class.core_hashtable.base, [4 x i8] }
%class.core_hashtable.base = type <{ ptr, i32, i32, i32 }>
%class.svector.9 = type { %class.vector.10 }
%class.vector.10 = type { ptr }
%class.ptr_vector.2 = type { %class.vector.3 }
%class.vector.3 = type { ptr }
%class.var_shifter = type <{ %class.var_shifter_core, i32, i32, i32, [4 x i8] }>
%class.var_shifter_core = type { %class.rewriter_core }
%class.inv_var_shifter = type <{ %class.var_shifter_core, i32, [4 x i8] }>
%class.obj_ref.11 = type { ptr, ptr }
%class.svector.12 = type { %class.vector.13 }
%class.vector.13 = type { ptr }
%"class.datalog::rule_manager" = type { ptr, ptr, %"class.datalog::rule_counter", %class.used_vars, %class.uint_set, %class.expr_free_vars, %class.ref_vector.4, %class.obj_ref.11, %class.ref_vector, %class.svector.22, %class.hnf, %class.qe_lite, %class.label_rewriter, %"struct.datalog::uninterpreted_function_finder_proc", %"struct.datalog::quantifier_finder_proc", [5 x i8], %class.expr_sparse_mark, %"struct.datalog::fd_finder_proc" }
%"class.datalog::rule_counter" = type { %class.var_counter }
%class.var_counter = type { %class.counter, %class.ast_fast_mark, %class.expr_free_vars, %class.ptr_vector.2, %class.svector.12 }
%class.counter = type { %class.u_map }
%class.u_map = type { %class.map }
%class.map = type { %class.table2map }
%class.table2map = type { %class.core_hashtable.14 }
%class.core_hashtable.14 = type <{ ptr, i32, i32, i32, [4 x i8] }>
%class.ast_fast_mark = type { %class.ptr_buffer }
%class.ptr_buffer = type { %class.buffer }
%class.buffer = type { ptr, i32, i32, [128 x i8] }
%class.used_vars = type { %class.ptr_vector.16, %class.hashtable, %class.svector.20, i32, i32 }
%class.ptr_vector.16 = type { %class.vector.17 }
%class.vector.17 = type { ptr }
%class.hashtable = type { %class.core_hashtable.base.19, [4 x i8] }
%class.core_hashtable.base.19 = type <{ ptr, i32, i32, i32 }>
%class.svector.20 = type { %class.vector.21 }
%class.vector.21 = type { ptr }
%class.uint_set = type { %class.svector.12 }
%class.svector.22 = type { %class.vector.23 }
%class.vector.23 = type { ptr }
%class.hnf = type { ptr }
%class.qe_lite = type { ptr }
%class.label_rewriter = type { i32, %class.rewriter_tpl.24 }
%class.rewriter_tpl.24 = type { %class.rewriter_core, ptr, i32, %class.ptr_vector.2, %class.var_shifter, %class.inv_var_shifter, %class.obj_ref, %class.obj_ref.11, %class.obj_ref.11, %class.svector.12 }
%"struct.datalog::uninterpreted_function_finder_proc" = type { ptr, %"class.datatype::util", %"class.datalog::dl_decl_util", i8, ptr }
%"class.datatype::util" = type { ptr, i32, ptr }
%"struct.datalog::quantifier_finder_proc" = type { i8, i8, i8 }
%class.expr_sparse_mark = type { %class.obj_hashtable }
%"struct.datalog::fd_finder_proc" = type <{ ptr, %class.bv_util, i8, [7 x i8] }>
%class.bv_util = type { %class.bv_recognizers, ptr, ptr }
%class.bv_recognizers = type { i32 }
%"class.datalog::context::contains_pred" = type { %class.i_expr_pred, ptr }
%class.i_expr_pred = type { ptr }
%"class.datalog::rule_properties" = type <{ ptr, ptr, ptr, ptr, %"class.datatype::util", %"class.datalog::dl_decl_util", %class.arith_util, %class.bv_util, %class.array_util, %"class.recfun::util", i8, [7 x i8], ptr, %class.obj_map, %class.obj_map.29, %class.ptr_vector.34, %class.ptr_vector.34, %class.ptr_vector.34, i8, i8, [6 x i8] }>
%class.arith_util = type { ptr, ptr }
%"class.recfun::util" = type { ptr, i32, ptr }
%class.obj_map = type { %class.core_hashtable.25 }
%class.core_hashtable.25 = type <{ ptr, i32, i32, i32, [4 x i8] }>
%class.obj_map.29 = type { %class.core_hashtable.30 }
%class.core_hashtable.30 = type <{ ptr, i32, i32, i32, [4 x i8] }>
%class.ptr_vector.34 = type { %class.vector.35 }
%class.vector.35 = type { ptr }
%"class.datalog::rule_transformer" = type { ptr, ptr, i8, %class.svector.36 }
%class.svector.36 = type { %class.vector.37 }
%class.vector.37 = type { ptr }
%class.trail_stack = type { %class.ptr_vector.38, %class.svector.12, %class.region }
%class.ptr_vector.38 = type { %class.vector.39 }
%class.vector.39 = type { ptr }
%class.region = type { ptr, ptr, ptr, ptr, ptr }
%class.ref_vector.40 = type { %class.ref_vector_core.41 }
%class.ref_vector_core.41 = type { %class.ref_manager_wrapper.42, %class.ptr_vector.43 }
%class.ref_manager_wrapper.42 = type { ptr }
%class.ptr_vector.43 = type { %class.vector.44 }
%class.vector.44 = type { ptr }
%class.bind_variables = type { ptr, %class.ref_vector.4, %class.obj_map.45, %class.obj_map.50, %class.ref_vector, %class.ptr_vector.16, %class.svector.55, %class.ptr_vector.2, %class.ptr_vector.2 }
%class.obj_map.45 = type { %class.core_hashtable.46 }
%class.core_hashtable.46 = type <{ ptr, i32, i32, i32, [4 x i8] }>
%class.obj_map.50 = type { %class.core_hashtable.51 }
%class.core_hashtable.51 = type <{ ptr, i32, i32, i32, [4 x i8] }>
%class.obj_map.57 = type { %class.core_hashtable.58 }
%class.core_hashtable.58 = type <{ ptr, i32, i32, i32, [4 x i8] }>
%class.obj_hashtable.62 = type { %class.core_hashtable.base.66, [4 x i8] }
%class.core_hashtable.base.66 = type <{ ptr, i32, i32, i32 }>
%class.map.68 = type { %class.table2map.69 }
%class.table2map.69 = type { %class.core_hashtable.70 }
%class.core_hashtable.70 = type <{ ptr, i32, i32, i32, [4 x i8] }>
%class.obj_map.72 = type { %class.core_hashtable.73 }
%class.core_hashtable.73 = type <{ ptr, i32, i32, i32, [4 x i8] }>
%"class.datalog::rule_set" = type { ptr, ptr, %class.ref_vector.77, %class.obj_map.80, %"class.datalog::rule_dependencies", %class.scoped_ptr.90, %class.obj_hashtable.62, %class.obj_map.91, %class.obj_map.91, %class.ref_vector.96, %class.ptr_vector.34 }
%class.ref_vector.77 = type { %class.ref_vector_core.78 }
%class.ref_vector_core.78 = type { %class.ref_manager_wrapper.79, %class.ptr_vector.34 }
%class.ref_manager_wrapper.79 = type { ptr }
%class.obj_map.80 = type { %class.core_hashtable.81 }
%class.core_hashtable.81 = type <{ ptr, i32, i32, i32, [4 x i8] }>
%"class.datalog::rule_dependencies" = type { %class.obj_map.85, ptr, %class.ptr_vector.2, %class.expr_sparse_mark, %class.obj_hashtable.62 }
%class.obj_map.85 = type { %class.core_hashtable.86 }
%class.core_hashtable.86 = type <{ ptr, i32, i32, i32, [4 x i8] }>
%class.scoped_ptr.90 = type { ptr }
%class.obj_map.91 = type { %class.core_hashtable.92 }
%class.core_hashtable.92 = type <{ ptr, i32, i32, i32, [4 x i8] }>
%class.ref_vector.96 = type { %class.ref_vector_core.97 }
%class.ref_vector_core.97 = type { %class.ref_manager_wrapper.98, %class.ptr_vector.99 }
%class.ref_manager_wrapper.98 = type { ptr }
%class.ptr_vector.99 = type { %class.vector.100 }
%class.vector.100 = type { ptr }
%class.expr_free_vars = type { %class.expr_sparse_mark, %class.ptr_vector.16, %class.ptr_vector.2 }
%class.svector.55 = type { %class.vector.56 }
%class.vector.56 = type { ptr }
%class.vector.101 = type { ptr }
%class.ref_vector = type { %class.ref_vector_core }
%class.ref_vector_core = type { %class.ref_manager_wrapper, %class.ptr_vector.2 }
%class.ref_manager_wrapper = type { ptr }
%class.ref = type { ptr }
%class.ref.102 = type { ptr }
%class.scoped_ptr.103 = type { ptr }
%class.obj_ref = type { ptr, ptr }

; Function Attrs: mustprogress nounwind uwtable
define linkonce_odr hidden void @_ZN7datalog16rule_transformer6pluginD2Ev(ptr noundef nonnull align 8 dereferenceable(24) %0) unnamed_addr #5 comdat align 2 {
  %2 = alloca ptr, align 8
  store ptr %0, ptr %2, align 8, !tbaa !25
  ret void
}

; Function Attrs: mustprogress nounwind uwtable
define linkonce_odr hidden noundef nonnull align 8 dereferenceable(976) ptr @_ZNK7datalog7context11get_managerEv(ptr noundef nonnull align 8 dereferenceable(3028) %0) #5 comdat align 2 {
  %2 = alloca ptr, align 8
  store ptr %0, ptr %2, align 8, !tbaa !8
  %3 = load ptr, ptr %2, align 8
  %4 = getelementptr inbounds nuw %"class.datalog::context", ptr %3, i32 0, i32 0
  %5 = load ptr, ptr %4, align 8, !tbaa !33
  ret ptr %5
}

; Function Attrs: mustprogress nounwind uwtable
define linkonce_odr hidden void @_ZN7datalog16rule_transformer6pluginC2Ejb(ptr noundef nonnull align 8 dereferenceable(24) %0, i32 noundef %1, i1 noundef zeroext %2) unnamed_addr #5 comdat align 2 {
  %4 = alloca ptr, align 8
  %5 = alloca i32, align 4
  %6 = alloca i8, align 1
  store ptr %0, ptr %4, align 8, !tbaa !25
  store i32 %1, ptr %5, align 4, !tbaa !10
  %7 = zext i1 %2 to i8
  store i8 %7, ptr %6, align 1, !tbaa !27
  %8 = load ptr, ptr %4, align 8
  store ptr getelementptr inbounds inrange(-16, 32) ({ [6 x ptr] }, ptr @_ZTVN7datalog16rule_transformer6pluginE, i32 0, i32 0, i32 2), ptr %8, align 8, !tbaa !12
  %9 = getelementptr inbounds nuw %"class.datalog::rule_transformer::plugin", ptr %8, i32 0, i32 1
  %10 = load i32, ptr %5, align 4, !tbaa !10
  store i32 %10, ptr %9, align 8, !tbaa !28
  %11 = getelementptr inbounds nuw %"class.datalog::rule_transformer::plugin", ptr %8, i32 0, i32 2
  %12 = load i8, ptr %6, align 1, !tbaa !27, !range !29, !noundef !30
  %13 = trunc i8 %12 to i1
  %14 = zext i1 %13 to i8
  store i8 %14, ptr %11, align 4, !tbaa !31
  %15 = getelementptr inbounds nuw %"class.datalog::rule_transformer::plugin", ptr %8, i32 0, i32 3
  store ptr null, ptr %15, align 8, !tbaa !32
  ret void
}

; Function Attrs: mustprogress uwtable
define hidden void @_ZN7datalog19mk_array_eq_rewriteC2ERNS_7contextEj(ptr noundef nonnull align 8 dereferenceable(84) %0, ptr noundef nonnull align 8 dereferenceable(3028) %1, i32 noundef %2) unnamed_addr #4 align 2 personality ptr @__gxx_personality_v0 {
  %4 = alloca ptr, align 8
  %5 = alloca ptr, align 8
  %6 = alloca i32, align 4
  %7 = alloca ptr, align 8
  %8 = alloca i32, align 4
  store ptr %0, ptr %4, align 8, !tbaa !3
  store ptr %1, ptr %5, align 8, !tbaa !8
  store i32 %2, ptr %6, align 4, !tbaa !10
  %9 = load ptr, ptr %4, align 8
  %10 = load i32, ptr %6, align 4, !tbaa !10
  call void @_ZN7datalog16rule_transformer6pluginC2Ejb(ptr noundef nonnull align 8 dereferenceable(24) %9, i32 noundef %10, i1 noundef zeroext false)
  store ptr getelementptr inbounds inrange(-16, 32) ({ [6 x ptr] }, ptr @_ZTVN7datalog19mk_array_eq_rewriteE, i32 0, i32 0, i32 2), ptr %9, align 8, !tbaa !12
  %11 = getelementptr inbounds nuw %"class.datalog::mk_array_eq_rewrite", ptr %9, i32 0, i32 1
  %12 = load ptr, ptr %5, align 8, !tbaa !8
  %13 = invoke noundef nonnull align 8 dereferenceable(976) ptr @_ZNK7datalog7context11get_managerEv(ptr noundef nonnull align 8 dereferenceable(3028) %12)
          to label %14 unwind label %21

14:                                               ; preds = %3
  store ptr %13, ptr %11, align 8, !tbaa !14
  %15 = getelementptr inbounds nuw %"class.datalog::mk_array_eq_rewrite", ptr %9, i32 0, i32 2
  %16 = load ptr, ptr %5, align 8, !tbaa !8
  store ptr %16, ptr %15, align 8, !tbaa !8
  %17 = getelementptr inbounds nuw %"class.datalog::mk_array_eq_rewrite", ptr %9, i32 0, i32 3
  %18 = getelementptr inbounds nuw %"class.datalog::mk_array_eq_rewrite", ptr %9, i32 0, i32 1
  %19 = load ptr, ptr %18, align 8, !tbaa !16
  invoke void @_ZN10array_utilC1ER11ast_manager(ptr noundef nonnull align 8 dereferenceable(16) %17, ptr noundef nonnull align 8 dereferenceable(976) %19)
          to label %20 unwind label %21

20:                                               ; preds = %14
  ret void

21:                                               ; preds = %14, %3
  %22 = landingpad { ptr, i32 }
          cleanup
  %23 = extractvalue { ptr, i32 } %22, 0
  store ptr %23, ptr %7, align 8
  %24 = extractvalue { ptr, i32 } %22, 1
  store i32 %24, ptr %8, align 4
  call void @_ZN7datalog16rule_transformer6pluginD2Ev(ptr noundef nonnull align 8 dereferenceable(24) %9) #3
  br label %25

25:                                               ; preds = %21
  %26 = load ptr, ptr %7, align 8
  %27 = load i32, ptr %8, align 4
  %28 = insertvalue { ptr, i32 } poison, ptr %26, 0
  %29 = insertvalue { ptr, i32 } %28, i32 %27, 1
  resume { ptr, i32 } %29
}